; Function Attrs: mustprogress uwtable
define void @_ZN6icu_7725CollationFastLatinBuilder11addUniqueCEElR10UErrorCode(ptr noundef nonnull align 8 dereferenceable(7372) %0, i64 noundef %1, ptr noundef nonnull align 4 dereferenceable(4) %2) local_unnamed_addr #0 align 2 {
  %4 = load i32, ptr %2, align 4, !tbaa !20
  %5 = icmp sgt i32 %4, 0
  %6 = icmp eq i64 %1, 0
  %or.cond = or i1 %6, %5
  %.mask = and i64 %1, -4294967296
  %7 = icmp eq i64 %.mask, 4294967296
  %or.cond11 = or i1 %7, %or.cond
  br i1 %or.cond11, label %40, label %8

8:                                                ; preds = %3
  %9 = and i64 %1, -49153
  %10 = getelementptr inbounds nuw i8, ptr %0, i64 7224
  %11 = getelementptr inbounds nuw i8, ptr %0, i64 7248
  %12 = load ptr, ptr %11, align 8, !tbaa !46
  %13 = getelementptr inbounds nuw i8, ptr %0, i64 7232
  %14 = load i32, ptr %13, align 8, !tbaa !45
  %15 = icmp eq i32 %14, 0
  br i1 %15, label %_ZN6icu_7712_GLOBAL__N_112binarySearchEPKlil.exit.thread, label %.preheader.i

.preheader.i:                                     ; preds = %8
  %16 = sdiv i32 %14, 2
  %17 = sext i32 %16 to i64
  %18 = getelementptr inbounds i64, ptr %12, i64 %17
  %19 = load i64, ptr %18, align 8, !tbaa !47
  %20 = icmp eq i64 %9, %19
  br i1 %20, label %_ZN6icu_7712_GLOBAL__N_112binarySearchEPKlil.exit, label %.lr.ph.i

.lr.ph.i:                                         ; preds = %.preheader.i, %31
  %21 = phi i64 [ %36, %31 ], [ %19, %.preheader.i ]
  %22 = phi i32 [ %33, %31 ], [ %16, %.preheader.i ]
  %.01938.i = phi i32 [ %.120.i, %31 ], [ %14, %.preheader.i ]
  %.02237.i = phi i32 [ %.123.i, %31 ], [ 0, %.preheader.i ]
  %23 = icmp ult i64 %9, %21
  %24 = icmp eq i32 %22, %.02237.i
  br i1 %23, label %25, label %28

25:                                               ; preds = %.lr.ph.i
  br i1 %24, label %26, label %31

26:                                               ; preds = %25
  %27 = xor i32 %22, -1
  br label %_ZN6icu_7712_GLOBAL__N_112binarySearchEPKlil.exit

28:                                               ; preds = %.lr.ph.i
  br i1 %24, label %29, label %31

29:                                               ; preds = %28
  %30 = sub nsw i32 -2, %22
  br label %_ZN6icu_7712_GLOBAL__N_112binarySearchEPKlil.exit

31:                                               ; preds = %28, %25
  %.123.i = phi i32 [ %.02237.i, %25 ], [ %22, %28 ]
  %.120.i = phi i32 [ %22, %25 ], [ %.01938.i, %28 ]
  %32 = add nsw i32 %.120.i, %.123.i
  %33 = sdiv i32 %32, 2
  %34 = sext i32 %33 to i64
  %35 = getelementptr inbounds i64, ptr %12, i64 %34
  %36 = load i64, ptr %35, align 8, !tbaa !47
  %37 = icmp eq i64 %9, %36
  br i1 %37, label %_ZN6icu_7712_GLOBAL__N_112binarySearchEPKlil.exit, label %.lr.ph.i, !llvm.loop !53

_ZN6icu_7712_GLOBAL__N_112binarySearchEPKlil.exit: ; preds = %31, %.preheader.i, %26, %29
  %.018.i = phi i32 [ %30, %29 ], [ %27, %26 ], [ %16, %.preheader.i ], [ %33, %31 ]
  %38 = icmp slt i32 %.018.i, 0
  br i1 %38, label %_ZN6icu_7712_GLOBAL__N_112binarySearchEPKlil.exit.thread, label %40

_ZN6icu_7712_GLOBAL__N_112binarySearchEPKlil.exit.thread: ; preds = %8, %_ZN6icu_7712_GLOBAL__N_112binarySearchEPKlil.exit
  %.018.i13 = phi i32 [ %.018.i, %_ZN6icu_7712_GLOBAL__N_112binarySearchEPKlil.exit ], [ -1, %8 ]
  %39 = xor i32 %.018.i13, -1
  tail call void @_ZN6icu_779UVector6415insertElementAtEliR10UErrorCode(ptr noundef nonnull align 8 dereferenceable(32) %10, i64 noundef %9, i32 noundef %39, ptr noundef nonnull align 4 dereferenceable(4) %2)
  br label %40

40:                                               ; preds = %_ZN6icu_7712_GLOBAL__N_112binarySearchEPKlil.exit, %_ZN6icu_7712_GLOBAL__N_112binarySearchEPKlil.exit.thread, %3
  ret void
}